; ModuleID = '45/2766.c'
source_filename = "45/2766.c"
target datalayout = "e-m:e-p270:32:32-p271:32:32-p272:64:64-i64:64-f80:128-n8:16:32:64-S128"
target triple = "x86_64-pc-linux-gnu"

@.str = private unnamed_addr constant [6 x i8] c"%s %s\00", align 1
@.str.1 = private unnamed_addr constant [3 x i8] c"%d\00", align 1

; Function Attrs: noinline nounwind uwtable
define dso_local i32 @main() #0 {
  %1 = alloca i32, align 4
  %2 = alloca [52 x i8], align 16
  %3 = alloca [55 x i8], align 16
  %4 = alloca [52 x i8], align 16
  %5 = alloca i32, align 4
  %6 = alloca i32, align 4
  %7 = alloca i32, align 4
  %8 = alloca i32, align 4
  store i32 0, i32* %1, align 4
  %9 = getelementptr inbounds [52 x i8], [52 x i8]* %2, i64 0, i64 0
  %10 = getelementptr inbounds [55 x i8], [55 x i8]* %3, i64 0, i64 0
  %11 = call i32 (i8*, ...) @__isoc99_scanf(i8* getelementptr inbounds ([6 x i8], [6 x i8]* @.str, i64 0, i64 0), i8* %9, i8* %10)
  %12 = getelementptr inbounds [52 x i8], [52 x i8]* %2, i64 0, i64 0
  %13 = call i64 @strlen(i8* %12) #3
  %14 = trunc i64 %13 to i32
  store i32 %14, i32* %5, align 4
  %15 = getelementptr inbounds [55 x i8], [55 x i8]* %3, i64 0, i64 0
  %16 = call i64 @strlen(i8* %15) #3
  %17 = load i32, i32* %5, align 4
  %18 = sext i32 %17 to i64
  %19 = sub i64 %16, %18
  %20 = trunc i64 %19 to i32
  store i32 %20, i32* %6, align 4
  store i32 0, i32* %7, align 4
  br label %21

21:                                               ; preds = %59, %0
  %22 = load i32, i32* %7, align 4
  %23 = load i32, i32* %6, align 4
  %24 = icmp sle i32 %22, %23
  br i1 %24, label %25, label %62

25:                                               ; preds = %21
  %26 = load i32, i32* %7, align 4
  store i32 %26, i32* %8, align 4
  br label %27

27:                                               ; preds = %44, %25
  %28 = load i32, i32* %8, align 4
  %29 = load i32, i32* %7, align 4
  %30 = load i32, i32* %5, align 4
  %31 = add nsw i32 %29, %30
  %32 = sub nsw i32 %31, 1
  %33 = icmp sle i32 %28, %32
  br i1 %33, label %34, label %47

34:                                               ; preds = %27
  %35 = load i32, i32* %8, align 4
  %36 = sext i32 %35 to i64
  %37 = getelementptr inbounds [55 x i8], [55 x i8]* %3, i64 0, i64 %36
  %38 = load i8, i8* %37, align 1
  %39 = load i32, i32* %8, align 4
  %40 = load i32, i32* %7, align 4
  %41 = sub nsw i32 %39, %40
  %42 = sext i32 %41 to i64
  %43 = getelementptr inbounds [52 x i8], [52 x i8]* %4, i64 0, i64 %42
  store i8 %38, i8* %43, align 1
  br label %44

44:                                               ; preds = %34
  %45 = load i32, i32* %8, align 4
  %46 = add nsw i32 %45, 1
  store i32 %46, i32* %8, align 4
  br label %27

47:                                               ; preds = %27
  %48 = load i32, i32* %8, align 4
  %49 = load i32, i32* %7, align 4
  %50 = sub nsw i32 %48, %49
  %51 = sext i32 %50 to i64
  %52 = getelementptr inbounds [52 x i8], [52 x i8]* %4, i64 0, i64 %51
  store i8 0, i8* %52, align 1
  %53 = getelementptr inbounds [52 x i8], [52 x i8]* %2, i64 0, i64 0
  %54 = getelementptr inbounds [52 x i8], [52 x i8]* %4, i64 0, i64 0
  %55 = call i32 @strcmp(i8* %53, i8* %54) #3
  %56 = icmp eq i32 %55, 0
  br i1 %56, label %57, label %58

57:                                               ; preds = %47
  br label %62

58:                                               ; preds = %47
  br label %59

59:                                               ; preds = %58
  %60 = load i32, i32* %7, align 4
  %61 = add nsw i32 %60, 1
  store i32 %61, i32* %7, align 4
  br label %21

62:                                               ; preds = %57, %21
  %63 = load i32, i32* %7, align 4
  %64 = call i32 (i8*, ...) @printf(i8* getelementptr inbounds ([3 x i8], [3 x i8]* @.str.1, i64 0, i64 0), i32 %63)
  ret i32 0
}

declare dso_local i32 @__isoc99_scanf(i8*, ...) #1

; Function Attrs: nounwind readonly
declare dso_local i64 @strlen(i8*) #2

; Function Attrs: nounwind readonly
declare dso_local i32 @strcmp(i8*, i8*) #2

declare dso_local i32 @printf(i8*, ...) #1


!llvm.module.flags = !{!0}
!llvm.ident = !{!1}

!0 = !{i32 1, !"wchar_size", i32 4}
!1 = !{!"clang version 10.0.0-4ubuntu1 "}
